; Function Attrs: nounwind uwtable
define void @Hop_Complement_rec(ptr noundef %0, ptr noundef %1, ptr noundef %2) local_unnamed_addr #0 {
  %4 = getelementptr i8, ptr %1, i64 32
  %.val = load i32, ptr %4, align 8
  %5 = and i32 %.val, 16
  %.not = icmp eq i32 %5, 0
  br i1 %.not, label %6, label %46

6:                                                ; preds = %3
  %7 = and i32 %.val, 7
  %.off = add nsw i32 %7, -1
  %switch = icmp ult i32 %.off, 2
  br i1 %switch, label %8, label %14

8:                                                ; preds = %6
  %9 = icmp eq ptr %1, %2
  %10 = ptrtoint ptr %1 to i64
  %11 = xor i64 %10, 1
  %12 = inttoptr i64 %11 to ptr
  %13 = select i1 %9, ptr %12, ptr %1
  store ptr %13, ptr %1, align 8, !tbaa !29
  br label %46

14:                                               ; preds = %6
  %15 = getelementptr i8, ptr %1, i64 16
  %.val21 = load ptr, ptr %15, align 8, !tbaa !3
  %16 = ptrtoint ptr %.val21 to i64
  %17 = and i64 %16, -2
  %18 = inttoptr i64 %17 to ptr
  tail call void @Hop_Complement_rec(ptr noundef %0, ptr noundef %18, ptr noundef %2)
  %19 = getelementptr i8, ptr %1, i64 24
  %.val22 = load ptr, ptr %19, align 8, !tbaa !10
  %20 = ptrtoint ptr %.val22 to i64
  %21 = and i64 %20, -2
  %22 = inttoptr i64 %21 to ptr
  tail call void @Hop_Complement_rec(ptr noundef %0, ptr noundef %22, ptr noundef %2)
  %.val23 = load ptr, ptr %15, align 8, !tbaa !3
  %23 = ptrtoint ptr %.val23 to i64
  %24 = and i64 %23, -2
  %.not.i = icmp eq i64 %24, 0
  br i1 %.not.i, label %Hop_ObjChild0Copy.exit, label %25

25:                                               ; preds = %14
  %26 = inttoptr i64 %24 to ptr
  %27 = load ptr, ptr %26, align 8, !tbaa !29
  %28 = and i64 %23, 1
  %29 = ptrtoint ptr %27 to i64
  %30 = xor i64 %28, %29
  %31 = inttoptr i64 %30 to ptr
  br label %Hop_ObjChild0Copy.exit

Hop_ObjChild0Copy.exit:                           ; preds = %14, %25
  %32 = phi ptr [ %31, %25 ], [ null, %14 ]
  %.val24 = load ptr, ptr %19, align 8, !tbaa !10
  %33 = ptrtoint ptr %.val24 to i64
  %34 = and i64 %33, -2
  %.not.i27 = icmp eq i64 %34, 0
  br i1 %.not.i27, label %Hop_ObjChild1Copy.exit, label %35

35:                                               ; preds = %Hop_ObjChild0Copy.exit
  %36 = inttoptr i64 %34 to ptr
  %37 = load ptr, ptr %36, align 8, !tbaa !29
  %38 = and i64 %33, 1
  %39 = ptrtoint ptr %37 to i64
  %40 = xor i64 %38, %39
  %41 = inttoptr i64 %40 to ptr
  br label %Hop_ObjChild1Copy.exit

Hop_ObjChild1Copy.exit:                           ; preds = %Hop_ObjChild0Copy.exit, %35
  %42 = phi ptr [ %41, %35 ], [ null, %Hop_ObjChild0Copy.exit ]
  %43 = tail call ptr @Hop_And(ptr noundef %0, ptr noundef %32, ptr noundef %42) #11
  store ptr %43, ptr %1, align 8, !tbaa !29
  %44 = load i32, ptr %4, align 8
  %45 = or i32 %44, 16
  store i32 %45, ptr %4, align 8
  br label %46

46:                                               ; preds = %3, %Hop_ObjChild1Copy.exit, %8
  ret void
}